target datalayout = "e-m:e-p270:32:32-p271:32:32-p272:64:64-i64:64-i128:128-f80:128-n8:16:32:64-S128"
target triple = "x86_64-pc-linux-gnu"

%class.JavaValue = type { i8, %"union.JavaValue::JavaCallValue" }
%"union.JavaValue::JavaCallValue" = type { double }
%class.ThreadShadow = type <{ ptr, ptr, ptr, i32, [4 x i8] }>

@_ZN9vmClasses8_klassesE = external global [0 x ptr], align 8
@_ZN6Symbol11_vm_symbolsE = external global [0 x ptr], align 8

; Function Attrs: mustprogress nounwind uwtable
define linkonce_odr hidden noundef ptr @_ZN9vmClasses11check_klassEP13InstanceKlass(ptr noundef %0) #1 comdat align 2 {
  %2 = alloca ptr, align 8
  store ptr %0, ptr %2, align 8
  %3 = load ptr, ptr %2, align 8
  ret ptr %3
}

; Function Attrs: mustprogress nounwind uwtable
define linkonce_odr hidden noundef ptr @_ZNK9JavaValue7get_oopEv(ptr noundef nonnull align 8 dereferenceable(16) %0) #1 comdat align 2 {
  %2 = alloca ptr, align 8
  store ptr %0, ptr %2, align 8
  %3 = load ptr, ptr %2, align 8
  %4 = getelementptr inbounds %class.JavaValue, ptr %3, i32 0, i32 1
  %5 = load ptr, ptr %4, align 8
  ret ptr %5
}

; Function Attrs: mustprogress nounwind uwtable
define linkonce_odr hidden noundef zeroext i1 @_ZNK12ThreadShadow21has_pending_exceptionEv(ptr noundef nonnull align 8 dereferenceable(28) %0) #1 comdat align 2 {
  %2 = alloca ptr, align 8
  store ptr %0, ptr %2, align 8
  %3 = load ptr, ptr %2, align 8
  %4 = getelementptr inbounds %class.ThreadShadow, ptr %3, i32 0, i32 1
  %5 = load ptr, ptr %4, align 8
  %6 = icmp ne ptr %5, null
  ret i1 %6
}

; Function Attrs: mustprogress nounwind uwtable
define linkonce_odr hidden noundef ptr @_ZN9vmSymbols26void_classloader_signatureEv() #1 comdat align 2 {
  %1 = load ptr, ptr getelementptr inbounds ([0 x ptr], ptr @_ZN6Symbol11_vm_symbolsE, i64 0, i64 915), align 8
  ret ptr %1
}

; Function Attrs: mustprogress nounwind uwtable
define linkonce_odr hidden noundef ptr @_ZN9vmSymbols25getSystemClassLoader_nameEv() #1 comdat align 2 {
  %1 = load ptr, ptr getelementptr inbounds ([0 x ptr], ptr @_ZN6Symbol11_vm_symbolsE, i64 0, i64 441), align 8
  ret ptr %1
}

; Function Attrs: mustprogress nounwind uwtable
define linkonce_odr hidden noundef ptr @_ZN9vmClasses17ClassLoader_klassEv() #1 comdat align 2 {
  %1 = load ptr, ptr getelementptr inbounds ([0 x ptr], ptr @_ZN9vmClasses8_klassesE, i64 0, i64 4), align 8
  %2 = call noundef ptr @_ZN9vmClasses11check_klassEP13InstanceKlass(ptr noundef %1)
  ret ptr %2
}

; Function Attrs: mustprogress nounwind uwtable
define linkonce_odr hidden void @_ZN9JavaValueC2E9BasicType(ptr noundef nonnull align 8 dereferenceable(16) %0, i8 noundef zeroext %1) unnamed_addr #1 comdat align 2 {
  %3 = alloca ptr, align 8
  %4 = alloca i8, align 1
  store ptr %0, ptr %3, align 8
  store i8 %1, ptr %4, align 1
  %5 = load ptr, ptr %3, align 8
  %6 = load i8, ptr %4, align 1
  %7 = getelementptr inbounds %class.JavaValue, ptr %5, i32 0, i32 0
  store i8 %6, ptr %7, align 8
  ret void
}

; Function Attrs: mustprogress nounwind uwtable
define hidden noundef ptr @_ZN16SystemDictionary28get_system_class_loader_implEP10JavaThread(ptr noundef %0) #1 align 2 {
  %2 = alloca ptr, align 8
  %3 = alloca ptr, align 8
  %4 = alloca %class.JavaValue, align 8
  %5 = alloca ptr, align 8
  store ptr %0, ptr %3, align 8
  call void @_ZN9JavaValueC2E9BasicType(ptr noundef nonnull align 8 dereferenceable(16) %4, i8 noundef zeroext 12)
  %6 = call noundef ptr @_ZN9vmClasses17ClassLoader_klassEv()
  store ptr %6, ptr %5, align 8
  %7 = load ptr, ptr %5, align 8
  %8 = call noundef ptr @_ZN9vmSymbols25getSystemClassLoader_nameEv()
  %9 = call noundef ptr @_ZN9vmSymbols26void_classloader_signatureEv()
  %10 = load ptr, ptr %3, align 8
  call void @_ZN9JavaCalls11call_staticEP9JavaValueP5KlassP6SymbolS5_P10JavaThread(ptr noundef %4, ptr noundef %7, ptr noundef %8, ptr noundef %9, ptr noundef %10)
  %11 = load ptr, ptr %3, align 8
  %12 = call noundef zeroext i1 @_ZNK12ThreadShadow21has_pending_exceptionEv(ptr noundef nonnull align 8 dereferenceable(28) %11)
  br i1 %12, label %13, label %14

13:                                               ; preds = %1
  store ptr null, ptr %2, align 8
  br label %16

14:                                               ; preds = %1
  %15 = call noundef ptr @_ZNK9JavaValue7get_oopEv(ptr noundef nonnull align 8 dereferenceable(16) %4)
  store ptr %15, ptr %2, align 8
  br label %16

16:                                               ; preds = %14, %13
  %17 = load ptr, ptr %2, align 8
  ret ptr %17
}