; Function Attrs: mustprogress nounwind uwtable
define hidden noundef ptr @_ZN16SystemDictionary28get_system_class_loader_implEP10JavaThread(ptr noundef %0) local_unnamed_addr #0 align 2 {
  %2 = alloca %class.JavaValue, align 8
  store i8 12, ptr %2, align 8
  %3 = load ptr, ptr getelementptr inbounds (i8, ptr @_ZN9vmClasses8_klassesE, i64 32), align 8
  %4 = load ptr, ptr getelementptr inbounds (i8, ptr @_ZN6Symbol11_vm_symbolsE, i64 3528), align 8
  %5 = load ptr, ptr getelementptr inbounds (i8, ptr @_ZN6Symbol11_vm_symbolsE, i64 7320), align 8
  call void @_ZN9JavaCalls11call_staticEP9JavaValueP5KlassP6SymbolS5_P10JavaThread(ptr noundef nonnull %2, ptr noundef %3, ptr noundef %4, ptr noundef %5, ptr noundef %0) #14
  %6 = getelementptr inbounds i8, ptr %0, i64 8
  %7 = load ptr, ptr %6, align 8
  %.not = icmp eq ptr %7, null
  %8 = getelementptr inbounds i8, ptr %2, i64 8
  %9 = load ptr, ptr %8, align 8
  %.0 = select i1 %.not, ptr %9, ptr null
  ret ptr %.0
}